target datalayout = "e-m:e-p270:32:32-p271:32:32-p272:64:64-i64:64-i128:128-f80:128-n8:16:32:64-S128"
target triple = "x86_64-pc-linux-gnu"

%class.ciMetadata = type { %class.ciBaseObject.base, ptr }
%class.ciBaseObject.base = type <{ ptr, i32 }>

; Function Attrs: mustprogress nounwind uwtable
define linkonce_odr hidden noundef ptr @_ZN10ciMetadata17constant_encodingEv(ptr noundef nonnull align 8 dereferenceable(24) %0) #1 comdat align 2 {
  %2 = alloca ptr, align 8
  store ptr %0, ptr %2, align 8
  %3 = load ptr, ptr %2, align 8
  %4 = getelementptr inbounds %class.ciMetadata, ptr %3, i32 0, i32 1
  %5 = load ptr, ptr %4, align 8
  ret ptr %5
}

; Function Attrs: mustprogress nounwind uwtable
define hidden noundef i32 @_ZN15ciObjectFactory16metadata_compareERKP8MetadataRKP10ciMetadata(ptr noundef nonnull align 8 dereferenceable(8) %0, ptr noundef nonnull align 8 dereferenceable(8) %1) #1 align 2 {
  %3 = alloca i32, align 4
  %4 = alloca ptr, align 8
  %5 = alloca ptr, align 8
  %6 = alloca ptr, align 8
  store ptr %0, ptr %4, align 8
  store ptr %1, ptr %5, align 8
  %7 = load ptr, ptr %5, align 8
  %8 = load ptr, ptr %7, align 8
  %9 = call noundef ptr @_ZN10ciMetadata17constant_encodingEv(ptr noundef nonnull align 8 dereferenceable(24) %8)
  store ptr %9, ptr %6, align 8
  %10 = load ptr, ptr %4, align 8
  %11 = load ptr, ptr %10, align 8
  %12 = load ptr, ptr %6, align 8
  %13 = icmp ult ptr %11, %12
  br i1 %13, label %14, label %15

14:                                               ; preds = %2
  store i32 -1, ptr %3, align 4
  br label %22

15:                                               ; preds = %2
  %16 = load ptr, ptr %4, align 8
  %17 = load ptr, ptr %16, align 8
  %18 = load ptr, ptr %6, align 8
  %19 = icmp ugt ptr %17, %18
  br i1 %19, label %20, label %21

20:                                               ; preds = %15
  store i32 1, ptr %3, align 4
  br label %22

21:                                               ; preds = %15
  store i32 0, ptr %3, align 4
  br label %22

22:                                               ; preds = %21, %20, %14
  %23 = load i32, ptr %3, align 4
  ret i32 %23
}