; Function Attrs: mustprogress nofree norecurse nosync nounwind willreturn memory(read, inaccessiblemem: none) uwtable
define hidden noundef range(i32 -1, 2) i32 @_ZN15ciObjectFactory16metadata_compareERKP8MetadataRKP10ciMetadata(ptr nocapture noundef nonnull readonly align 8 dereferenceable(8) %0, ptr nocapture noundef nonnull readonly align 8 dereferenceable(8) %1) local_unnamed_addr #4 align 2 {
  %3 = load ptr, ptr %1, align 8
  %4 = getelementptr inbounds i8, ptr %3, i64 16
  %5 = load ptr, ptr %4, align 8
  %6 = load ptr, ptr %0, align 8
  %7 = icmp ult ptr %6, %5
  %8 = icmp ugt ptr %6, %5
  %. = zext i1 %8 to i32
  %.0 = select i1 %7, i32 -1, i32 %.
  ret i32 %.0
}